target datalayout = "e-m:e-p270:32:32-p271:32:32-p272:64:64-i64:64-i128:128-f80:128-n8:16:32:64-S128"
target triple = "x86_64-pc-linux-gnu"

%struct.quicklist = type { ptr, ptr, i64, i64, i64, [0 x %struct.quicklistBookmark] }
%struct.quicklistBookmark = type { ptr, ptr }
%struct.quicklistNode = type { ptr, ptr, ptr, i64, i32 }

@.str.1 = private unnamed_addr constant [12 x i8] c"quicklist.c\00", align 1
@.str.4 = private unnamed_addr constant [46 x i8] c"node->encoding != QUICKLIST_NODE_ENCODING_LZF\00", align 1

; Function Attrs: nounwind uwtable
define dso_local i32 @quicklistPopCustom(ptr noundef %0, i32 noundef %1, ptr noundef %2, ptr noundef %3, ptr noundef %4, ptr noundef %5) #0 {
  %7 = alloca i32, align 4
  %8 = alloca ptr, align 8
  %9 = alloca i32, align 4
  %10 = alloca ptr, align 8
  %11 = alloca ptr, align 8
  %12 = alloca ptr, align 8
  %13 = alloca ptr, align 8
  %14 = alloca ptr, align 8
  %15 = alloca ptr, align 8
  %16 = alloca i32, align 4
  %17 = alloca i64, align 8
  %18 = alloca i32, align 4
  %19 = alloca i32, align 4
  %20 = alloca ptr, align 8
  store ptr %0, ptr %8, align 8, !tbaa !9
  store i32 %1, ptr %9, align 4, !tbaa !14
  store ptr %2, ptr %10, align 8, !tbaa !40
  store ptr %3, ptr %11, align 8, !tbaa !31
  store ptr %4, ptr %12, align 8, !tbaa !65
  store ptr %5, ptr %13, align 8, !tbaa !29
  call void @llvm.lifetime.start.p0(i64 8, ptr %14) #10
  call void @llvm.lifetime.start.p0(i64 8, ptr %15) #10
  call void @llvm.lifetime.start.p0(i64 4, ptr %16) #10
  call void @llvm.lifetime.start.p0(i64 8, ptr %17) #10
  call void @llvm.lifetime.start.p0(i64 4, ptr %18) #10
  %21 = load i32, ptr %9, align 4, !tbaa !14
  %22 = icmp eq i32 %21, 0
  %23 = select i1 %22, i32 0, i32 -1
  store i32 %23, ptr %18, align 4, !tbaa !14
  %24 = load ptr, ptr %8, align 8, !tbaa !9
  %25 = getelementptr inbounds nuw %struct.quicklist, ptr %24, i32 0, i32 2
  %26 = load i64, ptr %25, align 8, !tbaa !5
  %27 = icmp eq i64 %26, 0
  br i1 %27, label %28, label %29

28:                                               ; preds = %6
  store i32 0, ptr %7, align 4
  store i32 1, ptr %19, align 4
  br label %170

29:                                               ; preds = %6
  %30 = load ptr, ptr %10, align 8, !tbaa !40
  %31 = icmp ne ptr %30, null
  br i1 %31, label %32, label %34

32:                                               ; preds = %29
  %33 = load ptr, ptr %10, align 8, !tbaa !40
  store ptr null, ptr %33, align 8, !tbaa !35
  br label %34

34:                                               ; preds = %32, %29
  %35 = load ptr, ptr %11, align 8, !tbaa !31
  %36 = icmp ne ptr %35, null
  br i1 %36, label %37, label %39

37:                                               ; preds = %34
  %38 = load ptr, ptr %11, align 8, !tbaa !31
  store i64 0, ptr %38, align 8, !tbaa !5
  br label %39

39:                                               ; preds = %37, %34
  %40 = load ptr, ptr %12, align 8, !tbaa !65
  %41 = icmp ne ptr %40, null
  br i1 %41, label %42, label %44

42:                                               ; preds = %39
  %43 = load ptr, ptr %12, align 8, !tbaa !65
  store i64 -123456789, ptr %43, align 8, !tbaa !57
  br label %44

44:                                               ; preds = %42, %39
  call void @llvm.lifetime.start.p0(i64 8, ptr %20) #10
  %45 = load i32, ptr %9, align 4, !tbaa !14
  %46 = icmp eq i32 %45, 0
  br i1 %46, label %47, label %56

47:                                               ; preds = %44
  %48 = load ptr, ptr %8, align 8, !tbaa !9
  %49 = getelementptr inbounds nuw %struct.quicklist, ptr %48, i32 0, i32 0
  %50 = load ptr, ptr %49, align 8, !tbaa !12
  %51 = icmp ne ptr %50, null
  br i1 %51, label %52, label %56

52:                                               ; preds = %47
  %53 = load ptr, ptr %8, align 8, !tbaa !9
  %54 = getelementptr inbounds nuw %struct.quicklist, ptr %53, i32 0, i32 0
  %55 = load ptr, ptr %54, align 8, !tbaa !12
  store ptr %55, ptr %20, align 8, !tbaa !12
  br label %70

56:                                               ; preds = %47, %44
  %57 = load i32, ptr %9, align 4, !tbaa !14
  %58 = icmp eq i32 %57, -1
  br i1 %58, label %59, label %68

59:                                               ; preds = %56
  %60 = load ptr, ptr %8, align 8, !tbaa !9
  %61 = getelementptr inbounds nuw %struct.quicklist, ptr %60, i32 0, i32 1
  %62 = load ptr, ptr %61, align 8, !tbaa !12
  %63 = icmp ne ptr %62, null
  br i1 %63, label %64, label %68

64:                                               ; preds = %59
  %65 = load ptr, ptr %8, align 8, !tbaa !9
  %66 = getelementptr inbounds nuw %struct.quicklist, ptr %65, i32 0, i32 1
  %67 = load ptr, ptr %66, align 8, !tbaa !12
  store ptr %67, ptr %20, align 8, !tbaa !12
  br label %69

68:                                               ; preds = %59, %56
  store i32 0, ptr %7, align 4
  store i32 1, ptr %19, align 4
  br label %169

69:                                               ; preds = %64
  br label %70

70:                                               ; preds = %69, %52
  %71 = load ptr, ptr %20, align 8, !tbaa !12
  %72 = getelementptr inbounds nuw %struct.quicklistNode, ptr %71, i32 0, i32 4
  %73 = load i32, ptr %72, align 8
  %74 = lshr i32 %73, 16
  %75 = and i32 %74, 3
  %76 = icmp ne i32 %75, 2
  %77 = xor i1 %76, true
  %78 = xor i1 %77, true
  %79 = zext i1 %78 to i32
  %80 = sext i32 %79 to i64
  %81 = call i64 @llvm.expect.i64(i64 %80, i64 1)
  %82 = icmp ne i64 %81, 0
  br i1 %82, label %83, label %84

83:                                               ; preds = %70
  br label %86

84:                                               ; preds = %70
  call void @_serverAssert(ptr noundef @.str.4, ptr noundef @.str.1, i32 noundef 1605)
  call void @abort() #12
  unreachable

85:                                               ; No predecessors!
  br label %86

86:                                               ; preds = %85, %83
  %87 = load ptr, ptr %20, align 8, !tbaa !12
  %88 = getelementptr inbounds nuw %struct.quicklistNode, ptr %87, i32 0, i32 4
  %89 = load i32, ptr %88, align 8
  %90 = lshr i32 %89, 18
  %91 = and i32 %90, 3
  %92 = icmp eq i32 %91, 1
  %93 = xor i1 %92, true
  %94 = xor i1 %93, true
  %95 = zext i1 %94 to i32
  %96 = sext i32 %95 to i64
  %97 = call i64 @llvm.expect.i64(i64 %96, i64 0)
  %98 = icmp ne i64 %97, 0
  br i1 %98, label %99, label %124

99:                                               ; preds = %86
  %100 = load ptr, ptr %10, align 8, !tbaa !40
  %101 = icmp ne ptr %100, null
  br i1 %101, label %102, label %112

102:                                              ; preds = %99
  %103 = load ptr, ptr %13, align 8, !tbaa !29
  %104 = load ptr, ptr %20, align 8, !tbaa !12
  %105 = getelementptr inbounds nuw %struct.quicklistNode, ptr %104, i32 0, i32 2
  %106 = load ptr, ptr %105, align 8, !tbaa !16
  %107 = load ptr, ptr %20, align 8, !tbaa !12
  %108 = getelementptr inbounds nuw %struct.quicklistNode, ptr %107, i32 0, i32 3
  %109 = load i64, ptr %108, align 8, !tbaa !19
  %110 = call ptr %103(ptr noundef %106, i64 noundef %109)
  %111 = load ptr, ptr %10, align 8, !tbaa !40
  store ptr %110, ptr %111, align 8, !tbaa !35
  br label %112

112:                                              ; preds = %102, %99
  %113 = load ptr, ptr %11, align 8, !tbaa !31
  %114 = icmp ne ptr %113, null
  br i1 %114, label %115, label %120

115:                                              ; preds = %112
  %116 = load ptr, ptr %20, align 8, !tbaa !12
  %117 = getelementptr inbounds nuw %struct.quicklistNode, ptr %116, i32 0, i32 3
  %118 = load i64, ptr %117, align 8, !tbaa !19
  %119 = load ptr, ptr %11, align 8, !tbaa !31
  store i64 %118, ptr %119, align 8, !tbaa !5
  br label %120

120:                                              ; preds = %115, %112
  %121 = load ptr, ptr %8, align 8, !tbaa !9
  %122 = load ptr, ptr %20, align 8, !tbaa !12
  %123 = call i32 @quicklistDelIndex(ptr noundef %121, ptr noundef %122, ptr noundef null)
  store i32 1, ptr %7, align 4
  store i32 1, ptr %19, align 4
  br label %169

124:                                              ; preds = %86
  %125 = load ptr, ptr %20, align 8, !tbaa !12
  %126 = getelementptr inbounds nuw %struct.quicklistNode, ptr %125, i32 0, i32 2
  %127 = load ptr, ptr %126, align 8, !tbaa !16
  %128 = load i32, ptr %18, align 4, !tbaa !14
  %129 = sext i32 %128 to i64
  %130 = call ptr @lpSeek(ptr noundef %127, i64 noundef %129)
  store ptr %130, ptr %14, align 8, !tbaa !35
  %131 = load ptr, ptr %14, align 8, !tbaa !35
  %132 = call ptr @lpGetValue(ptr noundef %131, ptr noundef %16, ptr noundef %17)
  store ptr %132, ptr %15, align 8, !tbaa !35
  %133 = load ptr, ptr %15, align 8, !tbaa !35
  %134 = icmp ne ptr %133, null
  br i1 %134, label %135, label %153

135:                                              ; preds = %124
  %136 = load ptr, ptr %10, align 8, !tbaa !40
  %137 = icmp ne ptr %136, null
  br i1 %137, label %138, label %145

138:                                              ; preds = %135
  %139 = load ptr, ptr %13, align 8, !tbaa !29
  %140 = load ptr, ptr %15, align 8, !tbaa !35
  %141 = load i32, ptr %16, align 4, !tbaa !14
  %142 = zext i32 %141 to i64
  %143 = call ptr %139(ptr noundef %140, i64 noundef %142)
  %144 = load ptr, ptr %10, align 8, !tbaa !40
  store ptr %143, ptr %144, align 8, !tbaa !35
  br label %145

145:                                              ; preds = %138, %135
  %146 = load ptr, ptr %11, align 8, !tbaa !31
  %147 = icmp ne ptr %146, null
  br i1 %147, label %148, label %152

148:                                              ; preds = %145
  %149 = load i32, ptr %16, align 4, !tbaa !14
  %150 = zext i32 %149 to i64
  %151 = load ptr, ptr %11, align 8, !tbaa !31
  store i64 %150, ptr %151, align 8, !tbaa !5
  br label %152

152:                                              ; preds = %148, %145
  br label %165

153:                                              ; preds = %124
  %154 = load ptr, ptr %10, align 8, !tbaa !40
  %155 = icmp ne ptr %154, null
  br i1 %155, label %156, label %158

156:                                              ; preds = %153
  %157 = load ptr, ptr %10, align 8, !tbaa !40
  store ptr null, ptr %157, align 8, !tbaa !35
  br label %158

158:                                              ; preds = %156, %153
  %159 = load ptr, ptr %12, align 8, !tbaa !65
  %160 = icmp ne ptr %159, null
  br i1 %160, label %161, label %164

161:                                              ; preds = %158
  %162 = load i64, ptr %17, align 8, !tbaa !57
  %163 = load ptr, ptr %12, align 8, !tbaa !65
  store i64 %162, ptr %163, align 8, !tbaa !57
  br label %164

164:                                              ; preds = %161, %158
  br label %165

165:                                              ; preds = %164, %152
  %166 = load ptr, ptr %8, align 8, !tbaa !9
  %167 = load ptr, ptr %20, align 8, !tbaa !12
  %168 = call i32 @quicklistDelIndex(ptr noundef %166, ptr noundef %167, ptr noundef %14)
  store i32 1, ptr %7, align 4
  store i32 1, ptr %19, align 4
  br label %169

169:                                              ; preds = %165, %120, %68
  call void @llvm.lifetime.end.p0(i64 8, ptr %20) #10
  br label %170

170:                                              ; preds = %169, %28
  call void @llvm.lifetime.end.p0(i64 4, ptr %18) #10
  call void @llvm.lifetime.end.p0(i64 8, ptr %17) #10
  call void @llvm.lifetime.end.p0(i64 4, ptr %16) #10
  call void @llvm.lifetime.end.p0(i64 8, ptr %15) #10
  call void @llvm.lifetime.end.p0(i64 8, ptr %14) #10
  %171 = load i32, ptr %7, align 4
  ret i32 %171
}