; Function Attrs: nounwind uwtable
define dso_local range(i32 0, 2) i32 @quicklistPopCustom(ptr noundef %0, i32 noundef %1, ptr noundef writeonly captures(address_is_null) %2, ptr noundef writeonly captures(address_is_null) %3, ptr noundef writeonly captures(address_is_null) %4, ptr noundef readonly captures(none) %5) local_unnamed_addr #1 {
  %7 = alloca ptr, align 8
  %8 = alloca i32, align 4
  %9 = alloca i64, align 8
  call void @llvm.lifetime.start.p0(i64 8, ptr nonnull %7) #23
  call void @llvm.lifetime.start.p0(i64 4, ptr nonnull %8) #23
  call void @llvm.lifetime.start.p0(i64 8, ptr nonnull %9) #23
  %10 = icmp ne i32 %1, 0
  %11 = getelementptr inbounds nuw i8, ptr %0, i64 16
  %12 = load i64, ptr %11, align 8, !tbaa !5
  %13 = icmp eq i64 %12, 0
  br i1 %13, label %quicklistDelIndex.exit, label %14

14:                                               ; preds = %6
  %.not = icmp eq ptr %2, null
  br i1 %.not, label %16, label %15

15:                                               ; preds = %14
  store ptr null, ptr %2, align 8, !tbaa !32
  br label %16

16:                                               ; preds = %15, %14
  %.not52 = icmp eq ptr %3, null
  br i1 %.not52, label %18, label %17

17:                                               ; preds = %16
  store i64 0, ptr %3, align 8, !tbaa !5
  br label %18

18:                                               ; preds = %17, %16
  %.not53 = icmp eq ptr %4, null
  br i1 %.not53, label %20, label %19

19:                                               ; preds = %18
  store i64 -123456789, ptr %4, align 8, !tbaa !53
  br label %20

20:                                               ; preds = %19, %18
  br i1 %10, label %23, label %21

21:                                               ; preds = %20
  %22 = load ptr, ptr %0, align 8, !tbaa !16
  %.not54 = icmp eq ptr %22, null
  br i1 %.not54, label %quicklistDelIndex.exit, label %28

23:                                               ; preds = %20
  %24 = icmp eq i32 %1, -1
  br i1 %24, label %25, label %quicklistDelIndex.exit

25:                                               ; preds = %23
  %26 = getelementptr inbounds nuw i8, ptr %0, i64 8
  %27 = load ptr, ptr %26, align 8, !tbaa !16
  %.not55 = icmp eq ptr %27, null
  br i1 %.not55, label %quicklistDelIndex.exit, label %28

28:                                               ; preds = %25, %21
  %.0 = phi ptr [ %22, %21 ], [ %27, %25 ]
  %29 = getelementptr inbounds nuw i8, ptr %.0, i64 32
  %30 = load i32, ptr %29, align 8
  %31 = and i32 %30, 196608
  %.not56 = icmp eq i32 %31, 131072
  br i1 %.not56, label %32, label %33, !prof !24

32:                                               ; preds = %28
  tail call void @_serverAssert(ptr noundef nonnull @.str.4, ptr noundef nonnull @.str.1, i32 noundef 1605) #23
  tail call void @abort() #24
  unreachable

33:                                               ; preds = %28
  %34 = and i32 %30, 786432
  %35 = icmp eq i32 %34, 262144
  br i1 %35, label %36, label %49, !prof !24

36:                                               ; preds = %33
  br i1 %.not, label %43, label %37

37:                                               ; preds = %36
  %38 = getelementptr inbounds nuw i8, ptr %.0, i64 16
  %39 = load ptr, ptr %38, align 8, !tbaa !9
  %40 = getelementptr inbounds nuw i8, ptr %.0, i64 24
  %41 = load i64, ptr %40, align 8, !tbaa !15
  %42 = tail call ptr %5(ptr noundef %39, i64 noundef %41) #23
  store ptr %42, ptr %2, align 8, !tbaa !32
  br label %43

43:                                               ; preds = %37, %36
  br i1 %.not52, label %47, label %44

44:                                               ; preds = %43
  %45 = getelementptr inbounds nuw i8, ptr %.0, i64 24
  %46 = load i64, ptr %45, align 8, !tbaa !15
  store i64 %46, ptr %3, align 8, !tbaa !5
  br label %47

47:                                               ; preds = %44, %43
  %48 = tail call i32 @quicklistDelIndex(ptr noundef nonnull %0, ptr noundef nonnull %.0, ptr noundef null)
  br label %quicklistDelIndex.exit

49:                                               ; preds = %33
  %50 = getelementptr inbounds nuw i8, ptr %.0, i64 16
  %51 = load ptr, ptr %50, align 8, !tbaa !9
  %52 = sext i1 %10 to i64
  %53 = tail call ptr @lpSeek(ptr noundef %51, i64 noundef %52) #23
  store ptr %53, ptr %7, align 8, !tbaa !32
  %54 = call ptr @lpGetValue(ptr noundef %53, ptr noundef nonnull %8, ptr noundef nonnull %9) #23
  %.not57 = icmp eq ptr %54, null
  br i1 %.not57, label %64, label %55

55:                                               ; preds = %49
  br i1 %.not, label %60, label %56

56:                                               ; preds = %55
  %57 = load i32, ptr %8, align 4, !tbaa !28
  %58 = zext i32 %57 to i64
  %59 = call ptr %5(ptr noundef nonnull %54, i64 noundef %58) #23
  store ptr %59, ptr %2, align 8, !tbaa !32
  br label %60

60:                                               ; preds = %56, %55
  br i1 %.not52, label %69, label %61

61:                                               ; preds = %60
  %62 = load i32, ptr %8, align 4, !tbaa !28
  %63 = zext i32 %62 to i64
  store i64 %63, ptr %3, align 8, !tbaa !5
  br label %69

64:                                               ; preds = %49
  br i1 %.not, label %66, label %65

65:                                               ; preds = %64
  store ptr null, ptr %2, align 8, !tbaa !32
  br label %66

66:                                               ; preds = %65, %64
  br i1 %.not53, label %69, label %67

67:                                               ; preds = %66
  %68 = load i64, ptr %9, align 8, !tbaa !53
  store i64 %68, ptr %4, align 8, !tbaa !53
  br label %69

69:                                               ; preds = %66, %67, %60, %61
  %70 = load i32, ptr %29, align 8
  %71 = and i32 %70, 786432
  %72 = icmp eq i32 %71, 262144
  br i1 %72, label %73, label %74, !prof !24

73:                                               ; preds = %69
  call void @__quicklistDelNode(ptr noundef nonnull %0, ptr noundef nonnull %.0)
  br label %quicklistDelIndex.exit

74:                                               ; preds = %69
  %75 = load ptr, ptr %50, align 8, !tbaa !9
  %76 = call ptr @lpDelete(ptr noundef %75, ptr noundef %53, ptr noundef nonnull %7) #23
  store ptr %76, ptr %50, align 8, !tbaa !9
  %77 = load i32, ptr %29, align 8
  %78 = add i32 %77, 65535
  %79 = and i32 %78, 65535
  %80 = and i32 %77, -65536
  %81 = or disjoint i32 %79, %80
  store i32 %81, ptr %29, align 8
  %82 = and i32 %77, 65535
  %.not.i = icmp eq i32 %82, 1
  br i1 %.not.i, label %83, label %84

83:                                               ; preds = %74
  call void @__quicklistDelNode(ptr noundef nonnull %0, ptr noundef nonnull %.0)
  br label %87

84:                                               ; preds = %74
  %85 = call i64 @lpBytes(ptr noundef %76) #23
  %86 = getelementptr inbounds nuw i8, ptr %.0, i64 24
  store i64 %85, ptr %86, align 8, !tbaa !15
  br label %87

87:                                               ; preds = %84, %83
  %88 = load i64, ptr %11, align 8, !tbaa !5
  %89 = add i64 %88, -1
  store i64 %89, ptr %11, align 8, !tbaa !5
  br label %quicklistDelIndex.exit

quicklistDelIndex.exit:                           ; preds = %21, %87, %73, %47, %25, %23, %6
  %.041 = phi i32 [ 0, %6 ], [ 1, %47 ], [ 0, %25 ], [ 0, %23 ], [ 1, %73 ], [ 1, %87 ], [ 0, %21 ]
  call void @llvm.lifetime.end.p0(i64 8, ptr nonnull %9) #23
  call void @llvm.lifetime.end.p0(i64 4, ptr nonnull %8) #23
  call void @llvm.lifetime.end.p0(i64 8, ptr nonnull %7) #23
  ret i32 %.041
}